target datalayout = "e-m:e-p270:32:32-p271:32:32-p272:64:64-i64:64-i128:128-f80:128-n8:16:32:64-S128"
target triple = "x86_64-pc-linux-gnu"

@.str.7 = private unnamed_addr constant [38 x i8] c"Level = %2d : Var = %2d  Tried = %2d\0A\00", align 1
@.str.8 = private unnamed_addr constant [2 x i8] c"\0A\00", align 1

; Function Attrs: nounwind uwtable
define void @Gia_ManPermStats(i32 noundef %0, ptr noundef %1, ptr noundef %2) #0 {
  %4 = alloca i32, align 4
  %5 = alloca ptr, align 8
  %6 = alloca ptr, align 8
  %7 = alloca i32, align 4
  store i32 %0, ptr %4, align 4, !tbaa !9
  store ptr %1, ptr %5, align 8, !tbaa !44
  store ptr %2, ptr %6, align 8, !tbaa !44
  call void @llvm.lifetime.start.p0(i64 4, ptr %7) #13
  %8 = load i32, ptr %4, align 4, !tbaa !9
  %9 = sub nsw i32 %8, 1
  store i32 %9, ptr %7, align 4, !tbaa !9
  br label %10

10:                                               ; preds = %26, %3
  %11 = load i32, ptr %7, align 4, !tbaa !9
  %12 = icmp sge i32 %11, 0
  br i1 %12, label %13, label %29

13:                                               ; preds = %10
  %14 = load i32, ptr %7, align 4, !tbaa !9
  %15 = load ptr, ptr %5, align 8, !tbaa !44
  %16 = load i32, ptr %7, align 4, !tbaa !9
  %17 = sext i32 %16 to i64
  %18 = getelementptr inbounds i32, ptr %15, i64 %17
  %19 = load i32, ptr %18, align 4, !tbaa !9
  %20 = load ptr, ptr %6, align 8, !tbaa !44
  %21 = load i32, ptr %7, align 4, !tbaa !9
  %22 = sext i32 %21 to i64
  %23 = getelementptr inbounds i32, ptr %20, i64 %22
  %24 = load i32, ptr %23, align 4, !tbaa !9
  %25 = call i32 (ptr, ...) @printf(ptr noundef @.str.7, i32 noundef %14, i32 noundef %19, i32 noundef %24)
  br label %26

26:                                               ; preds = %13
  %27 = load i32, ptr %7, align 4, !tbaa !9
  %28 = add nsw i32 %27, -1
  store i32 %28, ptr %7, align 4, !tbaa !9
  br label %10, !llvm.loop !51

29:                                               ; preds = %10
  %30 = call i32 (ptr, ...) @printf(ptr noundef @.str.8)
  call void @llvm.lifetime.end.p0(i64 4, ptr %7) #13
  ret void
}