; Function Attrs: nofree nounwind uwtable
define void @Gia_ManPermStats(i32 noundef %0, ptr noundef readonly captures(none) %1, ptr noundef readonly captures(none) %2) local_unnamed_addr #7 {
  %4 = icmp sgt i32 %0, 0
  br i1 %4, label %.lr.ph.preheader, label %._crit_edge

.lr.ph.preheader:                                 ; preds = %3
  %5 = zext nneg i32 %0 to i64
  br label %.lr.ph

.lr.ph:                                           ; preds = %.lr.ph.preheader, %.lr.ph
  %indvars.iv = phi i64 [ %5, %.lr.ph.preheader ], [ %indvars.iv.next, %.lr.ph ]
  %indvars.iv.next = add nsw i64 %indvars.iv, -1
  %6 = getelementptr inbounds nuw i32, ptr %1, i64 %indvars.iv.next
  %7 = load i32, ptr %6, align 4, !tbaa !4
  %8 = getelementptr inbounds nuw i32, ptr %2, i64 %indvars.iv.next
  %9 = load i32, ptr %8, align 4, !tbaa !4
  %10 = trunc nuw nsw i64 %indvars.iv.next to i32
  %11 = tail call i32 (ptr, ...) @printf(ptr noundef nonnull dereferenceable(1) @.str.7, i32 noundef %10, i32 noundef %7, i32 noundef %9)
  %12 = icmp samesign ugt i64 %indvars.iv, 1
  br i1 %12, label %.lr.ph, label %._crit_edge, !llvm.loop !45

._crit_edge:                                      ; preds = %.lr.ph, %3
  %putchar = tail call i32 @putchar(i32 10)
  ret void
}